; Function Attrs: mustprogress uwtable
define noundef zeroext i1 @_ZN2cv21DetectionBasedTracker13setParametersERKNS0_10ParametersE(ptr noundef nonnull align 8 captures(none) dereferenceable(152) %0, ptr noundef nonnull readonly align 4 captures(none) dereferenceable(8) %1) local_unnamed_addr #0 align 2 personality ptr @__gxx_personality_v0 {
  %3 = load i32, ptr %1, align 4, !tbaa !108
  %4 = icmp sgt i32 %3, -1
  br i1 %4, label %5, label %18

5:                                                ; preds = %2
  %6 = getelementptr inbounds nuw i8, ptr %0, i64 8
  %7 = load ptr, ptr %6, align 8, !tbaa !128
  %.not = icmp eq ptr %7, null
  br i1 %.not, label %15, label %8

8:                                                ; preds = %5
  %9 = getelementptr inbounds nuw i8, ptr %7, i64 40
  %10 = tail call noundef i32 @pthread_mutex_lock(ptr noundef nonnull align 8 dereferenceable(40) %9) #26
  %.not.i.i.i.i = icmp eq i32 %10, 0
  br i1 %.not.i.i.i.i, label %_ZN2cv21DetectionBasedTracker21SeparateDetectionWork13setParametersERKNS0_10ParametersE.exit, label %11

11:                                               ; preds = %8
  tail call void @_ZSt20__throw_system_errori(i32 noundef %10) #27
  unreachable

_ZN2cv21DetectionBasedTracker21SeparateDetectionWork13setParametersERKNS0_10ParametersE.exit: ; preds = %8
  %12 = getelementptr inbounds nuw i8, ptr %7, i64 312
  %13 = load i64, ptr %1, align 4
  store i64 %13, ptr %12, align 8
  %14 = tail call noundef i32 @pthread_mutex_unlock(ptr noundef nonnull align 8 dereferenceable(40) %9) #26
  br label %15

15:                                               ; preds = %_ZN2cv21DetectionBasedTracker21SeparateDetectionWork13setParametersERKNS0_10ParametersE.exit, %5
  %16 = getelementptr inbounds nuw i8, ptr %0, i64 24
  %17 = load i64, ptr %1, align 4
  store i64 %17, ptr %16, align 8
  br label %18

18:                                               ; preds = %2, %15
  ret i1 %4
}